target datalayout = "e-m:e-p270:32:32-p271:32:32-p272:64:64-i64:64-i128:128-f80:128-n8:16:32:64-S128"
target triple = "x86_64-pc-linux-gnu"

%struct.PLpgSQL_execstate = type { ptr, ptr, ptr, i64, i8, i32, i32, i8, i8, i8, i8, ptr, ptr, ptr, ptr, ptr, ptr, ptr, i32, i32, ptr, ptr, ptr, ptr, ptr, ptr, ptr, ptr, ptr, ptr, i64, ptr, ptr, ptr, ptr, ptr }
%struct.ErrorContextCallback = type { ptr, ptr, ptr }
%struct.PLpgSQL_function = type { ptr, i32, i32, %struct.ItemPointerData, i32, i32, ptr, ptr, i32, i32, i8, i8, i8, i8, i8, i8, i32, [100 x i32], i32, i32, i32, i32, i32, i8, i32, i32, i32, ptr, i64, ptr, i32, i8, i8, ptr, i64 }
%struct.ItemPointerData = type { %struct.BlockIdData, i16 }
%struct.BlockIdData = type { i16, i16 }
%struct.PLpgSQL_plugin = type { ptr, ptr, ptr, ptr, ptr, ptr, ptr, ptr, ptr, ptr }
%struct.ExprContext = type { i32, ptr, ptr, ptr, ptr, ptr, ptr, ptr, ptr, ptr, i64, i8, i64, i8, ptr, ptr, ptr, ptr }
%struct.SimpleEcontextStackEntry = type { ptr, i32, ptr }

@error_context_stack = external global ptr, align 8
@.str = private unnamed_addr constant [41 x i8] c"during initialization of execution state\00", align 1
@.str.2 = private unnamed_addr constant [11 x i8] c"plpgsql-18\00", align 1
@.str.4 = private unnamed_addr constant [10 x i8] c"pl_exec.c\00", align 1
@plpgsql_plugin_ptr = external global ptr, align 8
@.str.11 = private unnamed_addr constant [21 x i8] c"during function exit\00", align 1
@.str.13 = private unnamed_addr constant [56 x i8] c"control reached end of trigger procedure without RETURN\00", align 1
@__func__.plpgsql_exec_event_trigger = private unnamed_addr constant [27 x i8] c"plpgsql_exec_event_trigger\00", align 1
@simple_econtext_stack = internal global ptr null, align 8
@InterruptPending = external global i32, align 4

; Function Attrs: nounwind uwtable
define internal void @exec_eval_cleanup(ptr noundef %0) #0 {
  %2 = alloca ptr, align 8
  store ptr %0, ptr %2, align 8
  %3 = load ptr, ptr %2, align 8
  %4 = getelementptr inbounds nuw %struct.PLpgSQL_execstate, ptr %3, i32 0, i32 29
  %5 = load ptr, ptr %4, align 8
  %6 = icmp ne ptr %5, null
  br i1 %6, label %7, label %11

7:                                                ; preds = %1
  %8 = load ptr, ptr %2, align 8
  %9 = getelementptr inbounds nuw %struct.PLpgSQL_execstate, ptr %8, i32 0, i32 29
  %10 = load ptr, ptr %9, align 8
  call void @SPI_freetuptable(ptr noundef %10)
  br label %11

11:                                               ; preds = %7, %1
  %12 = load ptr, ptr %2, align 8
  %13 = getelementptr inbounds nuw %struct.PLpgSQL_execstate, ptr %12, i32 0, i32 29
  store ptr null, ptr %13, align 8
  %14 = load ptr, ptr %2, align 8
  %15 = getelementptr inbounds nuw %struct.PLpgSQL_execstate, ptr %14, i32 0, i32 31
  %16 = load ptr, ptr %15, align 8
  %17 = icmp ne ptr %16, null
  br i1 %17, label %18, label %24

18:                                               ; preds = %11
  %19 = load ptr, ptr %2, align 8
  %20 = getelementptr inbounds nuw %struct.PLpgSQL_execstate, ptr %19, i32 0, i32 31
  %21 = load ptr, ptr %20, align 8
  %22 = getelementptr inbounds nuw %struct.ExprContext, ptr %21, i32 0, i32 5
  %23 = load ptr, ptr %22, align 8
  call void @MemoryContextReset(ptr noundef %23)
  br label %24

24:                                               ; preds = %18, %11
  ret void
}

; Function Attrs: nounwind uwtable
define internal void @plpgsql_destroy_econtext(ptr noundef %0) #0 {
  %2 = alloca ptr, align 8
  %3 = alloca ptr, align 8
  store ptr %0, ptr %2, align 8
  call void @llvm.lifetime.start.p0(i64 8, ptr %3) #12
  %4 = load ptr, ptr @simple_econtext_stack, align 8
  %5 = getelementptr inbounds nuw %struct.SimpleEcontextStackEntry, ptr %4, i32 0, i32 2
  %6 = load ptr, ptr %5, align 8
  store ptr %6, ptr %3, align 8
  %7 = load ptr, ptr @simple_econtext_stack, align 8
  call void @pfree(ptr noundef %7)
  %8 = load ptr, ptr %3, align 8
  store ptr %8, ptr @simple_econtext_stack, align 8
  %9 = load ptr, ptr %2, align 8
  %10 = getelementptr inbounds nuw %struct.PLpgSQL_execstate, ptr %9, i32 0, i32 31
  %11 = load ptr, ptr %10, align 8
  call void @FreeExprContext(ptr noundef %11, i1 noundef zeroext true)
  %12 = load ptr, ptr %2, align 8
  %13 = getelementptr inbounds nuw %struct.PLpgSQL_execstate, ptr %12, i32 0, i32 31
  store ptr null, ptr %13, align 8
  call void @llvm.lifetime.end.p0(i64 8, ptr %3) #12
  ret void
}

; Function Attrs: nounwind uwtable
define internal i32 @exec_toplevel_block(ptr noundef %0, ptr noundef %1) #0 {
  %3 = alloca ptr, align 8
  %4 = alloca ptr, align 8
  %5 = alloca i32, align 4
  store ptr %0, ptr %3, align 8
  store ptr %1, ptr %4, align 8
  call void @llvm.lifetime.start.p0(i64 4, ptr %5) #12
  %6 = load ptr, ptr %4, align 8
  %7 = load ptr, ptr %3, align 8
  %8 = getelementptr inbounds nuw %struct.PLpgSQL_execstate, ptr %7, i32 0, i32 32
  store ptr %6, ptr %8, align 8
  %9 = load ptr, ptr @plpgsql_plugin_ptr, align 8
  %10 = load ptr, ptr %9, align 8
  %11 = icmp ne ptr %10, null
  br i1 %11, label %12, label %25

12:                                               ; preds = %2
  %13 = load ptr, ptr @plpgsql_plugin_ptr, align 8
  %14 = load ptr, ptr %13, align 8
  %15 = getelementptr inbounds nuw %struct.PLpgSQL_plugin, ptr %14, i32 0, i32 3
  %16 = load ptr, ptr %15, align 8
  %17 = icmp ne ptr %16, null
  br i1 %17, label %18, label %25

18:                                               ; preds = %12
  %19 = load ptr, ptr @plpgsql_plugin_ptr, align 8
  %20 = load ptr, ptr %19, align 8
  %21 = getelementptr inbounds nuw %struct.PLpgSQL_plugin, ptr %20, i32 0, i32 3
  %22 = load ptr, ptr %21, align 8
  %23 = load ptr, ptr %3, align 8
  %24 = load ptr, ptr %4, align 8
  call void %22(ptr noundef %23, ptr noundef %24)
  br label %25

25:                                               ; preds = %18, %12, %2
  br label %26

26:                                               ; preds = %25
  %27 = load volatile i32, ptr @InterruptPending, align 4
  %28 = icmp ne i32 %27, 0
  %29 = zext i1 %28 to i32
  %30 = sext i32 %29 to i64
  %31 = call i64 @llvm.expect.i64(i64 %30, i64 0)
  %32 = icmp ne i64 %31, 0
  br i1 %32, label %33, label %34

33:                                               ; preds = %26
  call void @ProcessInterrupts()
  br label %34

34:                                               ; preds = %33, %26
  br label %35

35:                                               ; preds = %34
  br label %36

36:                                               ; preds = %35
  %37 = load ptr, ptr %3, align 8
  %38 = load ptr, ptr %4, align 8
  %39 = call i32 @exec_stmt_block(ptr noundef %37, ptr noundef %38)
  store i32 %39, ptr %5, align 4
  %40 = load ptr, ptr @plpgsql_plugin_ptr, align 8
  %41 = load ptr, ptr %40, align 8
  %42 = icmp ne ptr %41, null
  br i1 %42, label %43, label %56

43:                                               ; preds = %36
  %44 = load ptr, ptr @plpgsql_plugin_ptr, align 8
  %45 = load ptr, ptr %44, align 8
  %46 = getelementptr inbounds nuw %struct.PLpgSQL_plugin, ptr %45, i32 0, i32 4
  %47 = load ptr, ptr %46, align 8
  %48 = icmp ne ptr %47, null
  br i1 %48, label %49, label %56

49:                                               ; preds = %43
  %50 = load ptr, ptr @plpgsql_plugin_ptr, align 8
  %51 = load ptr, ptr %50, align 8
  %52 = getelementptr inbounds nuw %struct.PLpgSQL_plugin, ptr %51, i32 0, i32 4
  %53 = load ptr, ptr %52, align 8
  %54 = load ptr, ptr %3, align 8
  %55 = load ptr, ptr %4, align 8
  call void %53(ptr noundef %54, ptr noundef %55)
  br label %56

56:                                               ; preds = %49, %43, %36
  %57 = load ptr, ptr %3, align 8
  %58 = getelementptr inbounds nuw %struct.PLpgSQL_execstate, ptr %57, i32 0, i32 32
  store ptr null, ptr %58, align 8
  %59 = load i32, ptr %5, align 4
  call void @llvm.lifetime.end.p0(i64 4, ptr %5) #12
  ret i32 %59
}

; Function Attrs: nounwind uwtable
define hidden void @plpgsql_exec_event_trigger(ptr noundef %0, ptr noundef %1) #0 {
  %3 = alloca ptr, align 8
  %4 = alloca ptr, align 8
  %5 = alloca %struct.PLpgSQL_execstate, align 8
  %6 = alloca %struct.ErrorContextCallback, align 8
  %7 = alloca i32, align 4
  store ptr %0, ptr %3, align 8
  store ptr %1, ptr %4, align 8
  call void @llvm.lifetime.start.p0(i64 240, ptr %5) #12
  call void @llvm.lifetime.start.p0(i64 24, ptr %6) #12
  call void @llvm.lifetime.start.p0(i64 4, ptr %7) #12
  %8 = load ptr, ptr %3, align 8
  call void @plpgsql_estate_setup(ptr noundef %5, ptr noundef %8, ptr noundef null, ptr noundef null, ptr noundef null)
  %9 = load ptr, ptr %4, align 8
  %10 = getelementptr inbounds nuw %struct.PLpgSQL_execstate, ptr %5, i32 0, i32 2
  store ptr %9, ptr %10, align 8
  %11 = getelementptr inbounds nuw %struct.ErrorContextCallback, ptr %6, i32 0, i32 1
  store ptr @plpgsql_exec_error_callback, ptr %11, align 8
  %12 = getelementptr inbounds nuw %struct.ErrorContextCallback, ptr %6, i32 0, i32 2
  store ptr %5, ptr %12, align 8
  %13 = load ptr, ptr @error_context_stack, align 8
  %14 = getelementptr inbounds nuw %struct.ErrorContextCallback, ptr %6, i32 0, i32 0
  store ptr %13, ptr %14, align 8
  store ptr %6, ptr @error_context_stack, align 8
  %15 = getelementptr inbounds nuw %struct.PLpgSQL_execstate, ptr %5, i32 0, i32 34
  store ptr @.str, ptr %15, align 8
  %16 = load ptr, ptr %3, align 8
  call void @copy_plpgsql_datums(ptr noundef %5, ptr noundef %16)
  %17 = load ptr, ptr @plpgsql_plugin_ptr, align 8
  %18 = load ptr, ptr %17, align 8
  %19 = icmp ne ptr %18, null
  br i1 %19, label %20, label %32

20:                                               ; preds = %2
  %21 = load ptr, ptr @plpgsql_plugin_ptr, align 8
  %22 = load ptr, ptr %21, align 8
  %23 = getelementptr inbounds nuw %struct.PLpgSQL_plugin, ptr %22, i32 0, i32 1
  %24 = load ptr, ptr %23, align 8
  %25 = icmp ne ptr %24, null
  br i1 %25, label %26, label %32

26:                                               ; preds = %20
  %27 = load ptr, ptr @plpgsql_plugin_ptr, align 8
  %28 = load ptr, ptr %27, align 8
  %29 = getelementptr inbounds nuw %struct.PLpgSQL_plugin, ptr %28, i32 0, i32 1
  %30 = load ptr, ptr %29, align 8
  %31 = load ptr, ptr %3, align 8
  call void %30(ptr noundef %5, ptr noundef %31)
  br label %32

32:                                               ; preds = %26, %20, %2
  %33 = getelementptr inbounds nuw %struct.PLpgSQL_execstate, ptr %5, i32 0, i32 34
  store ptr null, ptr %33, align 8
  %34 = load ptr, ptr %3, align 8
  %35 = getelementptr inbounds nuw %struct.PLpgSQL_function, ptr %34, i32 0, i32 29
  %36 = load ptr, ptr %35, align 8
  %37 = call i32 @exec_toplevel_block(ptr noundef %5, ptr noundef %36)
  store i32 %37, ptr %7, align 4
  %38 = load i32, ptr %7, align 4
  %39 = icmp ne i32 %38, 2
  br i1 %39, label %40, label %53

40:                                               ; preds = %32
  %41 = getelementptr inbounds nuw %struct.PLpgSQL_execstate, ptr %5, i32 0, i32 34
  store ptr null, ptr %41, align 8
  br label %42

42:                                               ; preds = %40
  br i1 true, label %43, label %45

43:                                               ; preds = %42
  %44 = call zeroext i1 @errstart_cold(i32 noundef 21, ptr noundef @.str.2) #13
  br i1 %44, label %47, label %50

45:                                               ; preds = %42
  %46 = call zeroext i1 @errstart(i32 noundef 21, ptr noundef @.str.2)
  br i1 %46, label %47, label %50

47:                                               ; preds = %45, %43
  %48 = call i32 @errcode(i32 noundef 83887490)
  %49 = call i32 (ptr, ...) @errmsg(ptr noundef @.str.13)
  call void @errfinish(ptr noundef @.str.4, i32 noundef 1217, ptr noundef @__func__.plpgsql_exec_event_trigger)
  br label %50

50:                                               ; preds = %47, %45, %43
  unreachable

51:                                               ; No predecessors!
  br label %52

52:                                               ; preds = %51
  br label %53

53:                                               ; preds = %52, %32
  %54 = getelementptr inbounds nuw %struct.PLpgSQL_execstate, ptr %5, i32 0, i32 34
  store ptr @.str.11, ptr %54, align 8
  %55 = load ptr, ptr @plpgsql_plugin_ptr, align 8
  %56 = load ptr, ptr %55, align 8
  %57 = icmp ne ptr %56, null
  br i1 %57, label %58, label %70

58:                                               ; preds = %53
  %59 = load ptr, ptr @plpgsql_plugin_ptr, align 8
  %60 = load ptr, ptr %59, align 8
  %61 = getelementptr inbounds nuw %struct.PLpgSQL_plugin, ptr %60, i32 0, i32 2
  %62 = load ptr, ptr %61, align 8
  %63 = icmp ne ptr %62, null
  br i1 %63, label %64, label %70

64:                                               ; preds = %58
  %65 = load ptr, ptr @plpgsql_plugin_ptr, align 8
  %66 = load ptr, ptr %65, align 8
  %67 = getelementptr inbounds nuw %struct.PLpgSQL_plugin, ptr %66, i32 0, i32 2
  %68 = load ptr, ptr %67, align 8
  %69 = load ptr, ptr %3, align 8
  call void %68(ptr noundef %5, ptr noundef %69)
  br label %70

70:                                               ; preds = %64, %58, %53
  call void @plpgsql_destroy_econtext(ptr noundef %5)
  call void @exec_eval_cleanup(ptr noundef %5)
  %71 = getelementptr inbounds nuw %struct.ErrorContextCallback, ptr %6, i32 0, i32 0
  %72 = load ptr, ptr %71, align 8
  store ptr %72, ptr @error_context_stack, align 8
  call void @llvm.lifetime.end.p0(i64 4, ptr %7) #12
  call void @llvm.lifetime.end.p0(i64 24, ptr %6) #12
  call void @llvm.lifetime.end.p0(i64 240, ptr %5) #12
  ret void
}