; Function Attrs: nounwind uwtable
define hidden void @plpgsql_exec_event_trigger(ptr noundef initializes((536, 544)) %0, ptr noundef %1) local_unnamed_addr #0 {
  %3 = alloca %struct.PLpgSQL_execstate, align 8
  %4 = alloca %struct.ErrorContextCallback, align 8
  call void @llvm.lifetime.start.p0(i64 240, ptr nonnull %3) #12
  call void @llvm.lifetime.start.p0(i64 24, ptr nonnull %4) #12
  call fastcc void @plpgsql_estate_setup(ptr noundef %3, ptr noundef %0, ptr noundef null, ptr noundef null, ptr noundef null)
  %5 = getelementptr inbounds nuw i8, ptr %3, i64 16
  store ptr %1, ptr %5, align 8
  %6 = getelementptr inbounds nuw i8, ptr %4, i64 8
  store ptr @plpgsql_exec_error_callback, ptr %6, align 8
  %7 = getelementptr inbounds nuw i8, ptr %4, i64 16
  store ptr %3, ptr %7, align 8
  %8 = load ptr, ptr @error_context_stack, align 8
  store ptr %8, ptr %4, align 8
  store ptr %4, ptr @error_context_stack, align 8
  %9 = getelementptr inbounds nuw i8, ptr %3, i64 224
  store ptr @.str, ptr %9, align 8
  call fastcc void @copy_plpgsql_datums(ptr noundef %3, ptr noundef %0)
  %10 = load ptr, ptr @plpgsql_plugin_ptr, align 8
  %11 = load ptr, ptr %10, align 8
  %.not = icmp eq ptr %11, null
  br i1 %.not, label %16, label %12

12:                                               ; preds = %2
  %13 = getelementptr inbounds nuw i8, ptr %11, i64 8
  %14 = load ptr, ptr %13, align 8
  %.not9 = icmp eq ptr %14, null
  br i1 %.not9, label %16, label %15

15:                                               ; preds = %12
  call void %14(ptr noundef nonnull %3, ptr noundef %0) #12
  %.pre = load ptr, ptr @plpgsql_plugin_ptr, align 8
  br label %16

16:                                               ; preds = %15, %12, %2
  %17 = phi ptr [ %.pre, %15 ], [ %10, %12 ], [ %10, %2 ]
  store ptr null, ptr %9, align 8
  %18 = getelementptr inbounds nuw i8, ptr %0, i64 520
  %19 = load ptr, ptr %18, align 8
  %20 = getelementptr inbounds nuw i8, ptr %3, i64 208
  store ptr %19, ptr %20, align 8
  %21 = load ptr, ptr %17, align 8
  %.not.i = icmp eq ptr %21, null
  br i1 %.not.i, label %26, label %22

22:                                               ; preds = %16
  %23 = getelementptr inbounds nuw i8, ptr %21, i64 24
  %24 = load ptr, ptr %23, align 8
  %.not12.i = icmp eq ptr %24, null
  br i1 %.not12.i, label %26, label %25

25:                                               ; preds = %22
  call void %24(ptr noundef nonnull %3, ptr noundef %19) #12
  br label %26

26:                                               ; preds = %25, %22, %16
  %27 = load volatile i32, ptr @InterruptPending, align 4
  %.not13.i = icmp eq i32 %27, 0
  br i1 %.not13.i, label %29, label %28, !prof !7

28:                                               ; preds = %26
  call void @ProcessInterrupts() #12
  br label %29

29:                                               ; preds = %28, %26
  %30 = call fastcc i32 @exec_stmt_block(ptr noundef nonnull %3, ptr noundef %19)
  %31 = load ptr, ptr @plpgsql_plugin_ptr, align 8
  %32 = load ptr, ptr %31, align 8
  %.not14.i = icmp eq ptr %32, null
  br i1 %.not14.i, label %exec_toplevel_block.exit, label %33

33:                                               ; preds = %29
  %34 = getelementptr inbounds nuw i8, ptr %32, i64 32
  %35 = load ptr, ptr %34, align 8
  %.not15.i = icmp eq ptr %35, null
  br i1 %.not15.i, label %exec_toplevel_block.exit, label %36

36:                                               ; preds = %33
  call void %35(ptr noundef nonnull %3, ptr noundef %19) #12
  br label %exec_toplevel_block.exit

exec_toplevel_block.exit:                         ; preds = %29, %33, %36
  store ptr null, ptr %20, align 8
  %.not10 = icmp eq i32 %30, 2
  br i1 %.not10, label %41, label %37

37:                                               ; preds = %exec_toplevel_block.exit
  store ptr null, ptr %9, align 8
  %38 = call zeroext i1 @errstart_cold(i32 noundef 21, ptr noundef nonnull @.str.2) #13
  call void @llvm.assume(i1 %38)
  %39 = call i32 @errcode(i32 noundef 83887490) #12
  %40 = call i32 (ptr, ...) @errmsg(ptr noundef nonnull @.str.13) #12
  call void @errfinish(ptr noundef nonnull @.str.4, i32 noundef 1217, ptr noundef nonnull @__func__.plpgsql_exec_event_trigger) #12
  unreachable

41:                                               ; preds = %exec_toplevel_block.exit
  store ptr @.str.11, ptr %9, align 8
  %42 = load ptr, ptr @plpgsql_plugin_ptr, align 8
  %43 = load ptr, ptr %42, align 8
  %.not11 = icmp eq ptr %43, null
  br i1 %.not11, label %48, label %44

44:                                               ; preds = %41
  %45 = getelementptr inbounds nuw i8, ptr %43, i64 16
  %46 = load ptr, ptr %45, align 8
  %.not12 = icmp eq ptr %46, null
  br i1 %.not12, label %48, label %47

47:                                               ; preds = %44
  call void %46(ptr noundef nonnull %3, ptr noundef nonnull %0) #12
  br label %48

48:                                               ; preds = %47, %44, %41
  %49 = load ptr, ptr @simple_econtext_stack, align 8
  %50 = getelementptr inbounds nuw i8, ptr %49, i64 16
  %51 = load ptr, ptr %50, align 8
  call void @pfree(ptr noundef %49) #12
  store ptr %51, ptr @simple_econtext_stack, align 8
  %52 = getelementptr inbounds nuw i8, ptr %3, i64 200
  %53 = load ptr, ptr %52, align 8
  call void @FreeExprContext(ptr noundef %53, i1 noundef zeroext true) #12
  store ptr null, ptr %52, align 8
  %54 = getelementptr inbounds nuw i8, ptr %3, i64 184
  %55 = load ptr, ptr %54, align 8
  %.not.i13 = icmp eq ptr %55, null
  br i1 %.not.i13, label %exec_eval_cleanup.exit, label %56

56:                                               ; preds = %48
  call void @SPI_freetuptable(ptr noundef nonnull %55) #12
  %.pr = load ptr, ptr %52, align 8
  store ptr null, ptr %54, align 8
  %.not6.i = icmp eq ptr %.pr, null
  br i1 %.not6.i, label %exec_eval_cleanup.exit, label %57

57:                                               ; preds = %56
  %58 = getelementptr inbounds nuw i8, ptr %.pr, i64 40
  %59 = load ptr, ptr %58, align 8
  call void @MemoryContextReset(ptr noundef %59) #12
  br label %exec_eval_cleanup.exit

exec_eval_cleanup.exit:                           ; preds = %48, %56, %57
  %60 = load ptr, ptr %4, align 8
  store ptr %60, ptr @error_context_stack, align 8
  call void @llvm.lifetime.end.p0(i64 24, ptr nonnull %4) #12
  call void @llvm.lifetime.end.p0(i64 240, ptr nonnull %3) #12
  ret void
}